; ModuleID = 'source-C-CXX/51/1715.c'
source_filename = "source-C-CXX/51/1715.c"
target datalayout = "e-m:e-p270:32:32-p271:32:32-p272:64:64-i64:64-f80:128-n8:16:32:64-S128"
target triple = "x86_64-pc-linux-gnu"

@.str = private unnamed_addr constant [5 x i8] c"%d%d\00", align 1
@.str.1 = private unnamed_addr constant [3 x i8] c"%d\00", align 1
@.str.2 = private unnamed_addr constant [4 x i8] c"%d \00", align 1

; Function Attrs: nounwind sspstrong uwtable
define dso_local i32 @main() local_unnamed_addr #0 {
  %1 = alloca i32, align 4
  %2 = alloca i32, align 4
  %3 = bitcast i32* %1 to i8*
  call void @llvm.lifetime.start.p0i8(i64 4, i8* nonnull %3) #5
  %4 = bitcast i32* %2 to i8*
  call void @llvm.lifetime.start.p0i8(i64 4, i8* nonnull %4) #5
  %5 = call i32 (i8*, ...) @__isoc99_scanf(i8* getelementptr inbounds ([5 x i8], [5 x i8]* @.str, i64 0, i64 0), i32* nonnull %1, i32* nonnull %2)
  %6 = load i32, i32* %1, align 4, !tbaa !5
  %7 = sext i32 %6 to i64
  %8 = shl nsw i64 %7, 2
  %9 = call noalias align 16 i8* @malloc(i64 %8) #5
  %10 = bitcast i8* %9 to i32*
  %11 = icmp sgt i32 %6, 0
  br i1 %11, label %12, label %20

12:                                               ; preds = %0, %12
  %13 = phi i32 [ %17, %12 ], [ 0, %0 ]
  %14 = phi i32* [ %16, %12 ], [ %10, %0 ]
  %15 = call i32 (i8*, ...) @__isoc99_scanf(i8* getelementptr inbounds ([3 x i8], [3 x i8]* @.str.1, i64 0, i64 0), i32* %14)
  %16 = getelementptr inbounds i32, i32* %14, i64 1
  %17 = add nuw nsw i32 %13, 1
  %18 = load i32, i32* %1, align 4, !tbaa !5
  %19 = icmp slt i32 %17, %18
  br i1 %19, label %12, label %20, !llvm.loop !9

20:                                               ; preds = %12, %0
  %21 = phi i32 [ %6, %0 ], [ %18, %12 ]
  %22 = load i32, i32* %2, align 4, !tbaa !5
  %23 = sub i32 %21, %22
  %24 = icmp slt i32 %23, %21
  br i1 %24, label %25, label %29

25:                                               ; preds = %20
  %26 = sext i32 %23 to i64
  br label %35

27:                                               ; preds = %35
  %28 = load i32, i32* %2, align 4, !tbaa !5
  br label %29

29:                                               ; preds = %27, %20
  %30 = phi i32 [ %28, %27 ], [ %22, %20 ]
  %31 = phi i32 [ %41, %27 ], [ %21, %20 ]
  %32 = xor i32 %30, -1
  %33 = add i32 %31, %32
  %34 = icmp sgt i32 %33, 0
  br i1 %34, label %44, label %56

35:                                               ; preds = %25, %35
  %36 = phi i64 [ %26, %25 ], [ %40, %35 ]
  %37 = getelementptr inbounds i32, i32* %10, i64 %36
  %38 = load i32, i32* %37, align 4, !tbaa !5
  %39 = call i32 (i8*, ...) @printf(i8* nonnull dereferenceable(1) getelementptr inbounds ([4 x i8], [4 x i8]* @.str.2, i64 0, i64 0), i32 %38)
  %40 = add nsw i64 %36, 1
  %41 = load i32, i32* %1, align 4, !tbaa !5
  %42 = sext i32 %41 to i64
  %43 = icmp slt i64 %40, %42
  br i1 %43, label %35, label %27, !llvm.loop !11

44:                                               ; preds = %29, %44
  %45 = phi i64 [ %49, %44 ], [ 0, %29 ]
  %46 = getelementptr inbounds i32, i32* %10, i64 %45
  %47 = load i32, i32* %46, align 4, !tbaa !5
  %48 = call i32 (i8*, ...) @printf(i8* nonnull dereferenceable(1) getelementptr inbounds ([4 x i8], [4 x i8]* @.str.2, i64 0, i64 0), i32 %47)
  %49 = add nuw nsw i64 %45, 1
  %50 = load i32, i32* %1, align 4, !tbaa !5
  %51 = load i32, i32* %2, align 4, !tbaa !5
  %52 = xor i32 %51, -1
  %53 = add i32 %50, %52
  %54 = sext i32 %53 to i64
  %55 = icmp slt i64 %49, %54
  br i1 %55, label %44, label %56, !llvm.loop !12

56:                                               ; preds = %44, %29
  %57 = phi i32 [ %31, %29 ], [ %50, %44 ]
  %58 = phi i32 [ %32, %29 ], [ %52, %44 ]
  %59 = sext i32 %57 to i64
  %60 = sext i32 %58 to i64
  %61 = add nsw i64 %60, %59
  %62 = getelementptr inbounds i32, i32* %10, i64 %61
  %63 = load i32, i32* %62, align 4, !tbaa !5
  %64 = call i32 (i8*, ...) @printf(i8* nonnull dereferenceable(1) getelementptr inbounds ([3 x i8], [3 x i8]* @.str.1, i64 0, i64 0), i32 %63)
  call void @free(i8* %9) #5
  call void @llvm.lifetime.end.p0i8(i64 4, i8* nonnull %4) #5
  call void @llvm.lifetime.end.p0i8(i64 4, i8* nonnull %3) #5
  ret i32 0
}

; Function Attrs: argmemonly mustprogress nofree nosync nounwind willreturn
declare void @llvm.lifetime.start.p0i8(i64 immarg, i8* nocapture) #1

; Function Attrs: nofree nounwind
declare noundef i32 @__isoc99_scanf(i8* nocapture noundef readonly, ...) local_unnamed_addr #2

; Function Attrs: inaccessiblememonly mustprogress nofree nounwind willreturn
declare noalias noundef align 16 i8* @malloc(i64 noundef) local_unnamed_addr #3

; Function Attrs: nofree nounwind
declare noundef i32 @printf(i8* nocapture noundef readonly, ...) local_unnamed_addr #2

; Function Attrs: inaccessiblemem_or_argmemonly mustprogress nounwind willreturn
declare void @free(i8* nocapture noundef) local_unnamed_addr #4

; Function Attrs: argmemonly mustprogress nofree nosync nounwind willreturn
declare void @llvm.lifetime.end.p0i8(i64 immarg, i8* nocapture) #1


!llvm.module.flags = !{!0, !1, !2, !3}
!llvm.ident = !{!4}

!0 = !{i32 1, !"wchar_size", i32 4}
!1 = !{i32 7, !"PIC Level", i32 2}
!2 = !{i32 7, !"PIE Level", i32 2}
!3 = !{i32 7, !"uwtable", i32 1}
!4 = !{!"clang version 13.0.0"}
!5 = !{!6, !6, i64 0}
!6 = !{!"int", !7, i64 0}
!7 = !{!"omnipotent char", !8, i64 0}
!8 = !{!"Simple C/C++ TBAA"}
!9 = distinct !{!9, !10}
!10 = !{!"llvm.loop.mustprogress"}
!11 = distinct !{!11, !10}
!12 = distinct !{!12, !10}
